target datalayout = "e-m:e-p270:32:32-p271:32:32-p272:64:64-i64:64-i128:128-f80:128-n8:16:32:64-S128"
target triple = "x86_64-pc-linux-gnu"

%struct.slurm_conf_t = type { i64, ptr, i16, ptr, ptr, ptr, ptr, ptr, i16, ptr, ptr, ptr, ptr, ptr, ptr, ptr, i16, ptr, ptr, ptr, ptr, i16, ptr, ptr, ptr, i64, ptr, ptr, ptr, ptr, i16, ptr, ptr, i16, i32, ptr, i32, ptr, i32, i32, ptr, ptr, i64, i64, ptr, i16, i16, ptr, i32, i32, ptr, i32, ptr, i32, i16, i16, i16, ptr, i16, i16, ptr, ptr, i32, i16, i16, ptr, i32, i16, ptr, ptr, ptr, ptr, i16, ptr, ptr, ptr, ptr, i32, ptr, ptr, ptr, ptr, i16, i16, ptr, i32, i32, i32, i16, i16, ptr, ptr, i16, ptr, ptr, i32, i32, i32, i32, i32, i64, i32, i32, i16, ptr, ptr, i32, ptr, ptr, ptr, i16, i32, ptr, ptr, i16, ptr, ptr, i32, i16, ptr, ptr, ptr, ptr, i32, i32, i16, i16, i32, ptr, i16, ptr, i32, i32, i32, i32, i32, i32, ptr, i16, ptr, ptr, i32, i16, ptr, i32, i16, i16, ptr, ptr, ptr, i16, ptr, ptr, ptr, ptr, i16, i16, ptr, i16, ptr, i16, ptr, i16, ptr, i16, ptr, ptr, ptr, ptr, i16, ptr, ptr, ptr, i32, ptr, i32, ptr, ptr, i16, ptr, ptr, i32, i16, ptr, ptr, i16, i16, ptr, i16, ptr, ptr, ptr, i32, ptr, i16, i16, ptr, ptr, ptr, ptr, ptr, ptr, ptr, ptr, i16, i32, i16, ptr, ptr, ptr, ptr, i32, ptr, ptr, ptr, i16, ptr, ptr, ptr, i16, ptr, i16, ptr, i16, i16, ptr }
%struct.auth_credential_t = type { i32, i32, ptr, i8, %struct.in_addr, i8, i32, i32, ptr, i32 }
%struct.in_addr = type { i32 }
%struct.sockaddr_storage = type { i16, [118 x i8], i64 }
%struct.sockaddr_in = type { i16, i16, %struct.in_addr, [8 x i8] }

@slurm_conf = external global %struct.slurm_conf_t, align 8
@.str.8 = private unnamed_addr constant [13 x i8] c"auth_munge.c\00", align 1
@__func__.auth_p_get_host = private unnamed_addr constant [16 x i8] c"auth_p_get_host\00", align 1
@.str.12 = private unnamed_addr constant [25 x i8] c"%s: Lookup failed for %s\00", align 1

; Function Attrs: inlinehint nounwind uwtable
define internal i32 @__bswap_32(i32 noundef %0) #7 {
  %2 = alloca i32, align 4
  store i32 %0, ptr %2, align 4
  %3 = load i32, ptr %2, align 4
  %4 = and i32 %3, -16777216
  %5 = lshr i32 %4, 24
  %6 = load i32, ptr %2, align 4
  %7 = and i32 %6, 16711680
  %8 = lshr i32 %7, 8
  %9 = or i32 %5, %8
  %10 = load i32, ptr %2, align 4
  %11 = and i32 %10, 65280
  %12 = shl i32 %11, 8
  %13 = or i32 %9, %12
  %14 = load i32, ptr %2, align 4
  %15 = and i32 %14, 255
  %16 = shl i32 %15, 24
  %17 = or i32 %13, %16
  ret i32 %17
}

; Function Attrs: nounwind uwtable
define dso_local ptr @auth_p_get_host(ptr noundef %0) #0 {
  %2 = alloca ptr, align 8
  %3 = alloca ptr, align 8
  %4 = alloca %struct.sockaddr_storage, align 8
  %5 = alloca ptr, align 8
  %6 = alloca ptr, align 8
  %7 = alloca ptr, align 8
  %8 = alloca i32, align 4
  store ptr %0, ptr %3, align 8
  call void @llvm.lifetime.start.p0(i64 128, ptr %4) #9
  call void @llvm.lifetime.start.p0(i64 8, ptr %5) #9
  store ptr %4, ptr %5, align 8
  call void @llvm.lifetime.start.p0(i64 8, ptr %6) #9
  store ptr null, ptr %6, align 8
  call void @llvm.lifetime.start.p0(i64 8, ptr %7) #9
  store ptr null, ptr %7, align 8
  %9 = load ptr, ptr %3, align 8
  %10 = icmp ne ptr %9, null
  br i1 %10, label %11, label %16

11:                                               ; preds = %1
  %12 = load ptr, ptr %3, align 8
  %13 = getelementptr inbounds nuw %struct.auth_credential_t, ptr %12, i32 0, i32 5
  %14 = load i8, ptr %13, align 8, !range !8, !noundef !9
  %15 = trunc i8 %14 to i1
  br i1 %15, label %18, label %16

16:                                               ; preds = %11, %1
  %17 = call ptr @__errno_location() #11
  store i32 6004, ptr %17, align 4
  store ptr null, ptr %2, align 8
  store i32 1, ptr %8, align 4
  br label %69

18:                                               ; preds = %11
  %19 = getelementptr inbounds nuw %struct.sockaddr_storage, ptr %4, i32 0, i32 0
  store i16 2, ptr %19, align 8
  %20 = load ptr, ptr %3, align 8
  %21 = getelementptr inbounds nuw %struct.auth_credential_t, ptr %20, i32 0, i32 4
  %22 = getelementptr inbounds nuw %struct.in_addr, ptr %21, i32 0, i32 0
  %23 = load i32, ptr %22, align 4
  %24 = load ptr, ptr %5, align 8
  %25 = getelementptr inbounds nuw %struct.sockaddr_in, ptr %24, i32 0, i32 2
  %26 = getelementptr inbounds nuw %struct.in_addr, ptr %25, i32 0, i32 0
  store i32 %23, ptr %26, align 4
  %27 = load ptr, ptr %5, align 8
  %28 = getelementptr inbounds nuw %struct.sockaddr_in, ptr %27, i32 0, i32 2
  %29 = getelementptr inbounds nuw %struct.in_addr, ptr %28, i32 0, i32 0
  %30 = load i32, ptr %29, align 4
  %31 = call i32 @__bswap_32(i32 noundef %30)
  %32 = and i32 %31, -16777216
  %33 = icmp eq i32 %32, 2130706432
  br i1 %33, label %34, label %35

34:                                               ; preds = %18
  store ptr null, ptr %2, align 8
  store i32 1, ptr %8, align 4
  br label %69

35:                                               ; preds = %18
  %36 = load ptr, ptr %5, align 8
  %37 = getelementptr inbounds nuw %struct.sockaddr_in, ptr %36, i32 0, i32 2
  %38 = getelementptr inbounds nuw %struct.in_addr, ptr %37, i32 0, i32 0
  %39 = load i32, ptr %38, align 4
  %40 = icmp ne i32 %39, 0
  br i1 %40, label %41, label %53

41:                                               ; preds = %35
  %42 = call ptr @xgetnameinfo(ptr noundef %4)
  store ptr %42, ptr %6, align 8
  %43 = load ptr, ptr %6, align 8
  %44 = icmp ne ptr %43, null
  br i1 %44, label %45, label %52

45:                                               ; preds = %41
  %46 = load ptr, ptr %6, align 8
  %47 = call ptr @strchr(ptr noundef %46, i32 noundef 46) #10
  store ptr %47, ptr %7, align 8
  %48 = icmp ne ptr %47, null
  br i1 %48, label %49, label %52

49:                                               ; preds = %45
  %50 = load ptr, ptr %7, align 8
  %51 = getelementptr inbounds i8, ptr %50, i64 0
  store i8 0, ptr %51, align 1
  br label %52

52:                                               ; preds = %49, %45, %41
  br label %53

53:                                               ; preds = %52, %35
  %54 = load ptr, ptr %6, align 8
  %55 = icmp ne ptr %54, null
  br i1 %55, label %67, label %56

56:                                               ; preds = %53
  %57 = call ptr @slurm_xcalloc(i64 noundef 1, i64 noundef 16, i1 noundef zeroext true, i1 noundef zeroext false, ptr noundef @.str.8, i32 noundef 391, ptr noundef @__func__.auth_p_get_host)
  store ptr %57, ptr %6, align 8
  %58 = load ptr, ptr %6, align 8
  call void @slurm_get_ip_str(ptr noundef %4, ptr noundef %58, i32 noundef 16)
  %59 = load i32, ptr getelementptr inbounds nuw (%struct.slurm_conf_t, ptr @slurm_conf, i32 0, i32 34), align 4
  %60 = zext i32 %59 to i64
  %61 = and i64 %60, 128
  %62 = icmp ne i64 %61, 0
  br i1 %62, label %66, label %63

63:                                               ; preds = %56
  %64 = load ptr, ptr %6, align 8
  %65 = call i32 (ptr, ...) @slurm_error(ptr noundef @.str.12, ptr noundef @__func__.auth_p_get_host, ptr noundef %64)
  br label %66

66:                                               ; preds = %63, %56
  br label %67

67:                                               ; preds = %66, %53
  %68 = load ptr, ptr %6, align 8
  store ptr %68, ptr %2, align 8
  store i32 1, ptr %8, align 4
  br label %69

69:                                               ; preds = %67, %34, %16
  call void @llvm.lifetime.end.p0(i64 8, ptr %7) #9
  call void @llvm.lifetime.end.p0(i64 8, ptr %6) #9
  call void @llvm.lifetime.end.p0(i64 8, ptr %5) #9
  call void @llvm.lifetime.end.p0(i64 128, ptr %4) #9
  %70 = load ptr, ptr %2, align 8
  ret ptr %70
}