; Function Attrs: nounwind uwtable
define dso_local ptr @auth_p_get_host(ptr noundef readonly captures(address_is_null) %0) local_unnamed_addr #0 {
  %2 = alloca %struct.sockaddr_storage, align 8
  call void @llvm.lifetime.start.p0(i64 128, ptr nonnull %2) #13
  %.not = icmp eq ptr %0, null
  br i1 %.not, label %7, label %3

3:                                                ; preds = %1
  %4 = getelementptr inbounds nuw i8, ptr %0, i64 24
  %5 = load i8, ptr %4, align 8, !range !8, !noundef !9
  %6 = trunc nuw i8 %5 to i1
  br i1 %6, label %9, label %7

7:                                                ; preds = %3, %1
  %8 = tail call ptr @__errno_location() #14
  store i32 6004, ptr %8, align 4
  br label %26

9:                                                ; preds = %3
  store i16 2, ptr %2, align 8
  %10 = getelementptr inbounds nuw i8, ptr %0, i64 20
  %11 = load i32, ptr %10, align 4
  %12 = getelementptr inbounds nuw i8, ptr %2, i64 4
  store i32 %11, ptr %12, align 4
  %.mask = and i32 %11, 255
  %13 = icmp eq i32 %.mask, 127
  br i1 %13, label %26, label %14

14:                                               ; preds = %9
  %.not19 = icmp eq i32 %11, 0
  br i1 %.not19, label %20, label %15

15:                                               ; preds = %14
  %16 = call ptr @xgetnameinfo(ptr noundef nonnull %2) #13
  %.not20 = icmp eq ptr %16, null
  br i1 %.not20, label %20, label %17

17:                                               ; preds = %15
  %18 = call ptr @strchr(ptr noundef nonnull dereferenceable(1) %16, i32 noundef 46) #15
  %.not21 = icmp eq ptr %18, null
  br i1 %.not21, label %26, label %19

19:                                               ; preds = %17
  store i8 0, ptr %18, align 1
  br label %26

20:                                               ; preds = %15, %14
  %21 = call ptr @slurm_xcalloc(i64 noundef 1, i64 noundef 16, i1 noundef zeroext true, i1 noundef zeroext false, ptr noundef nonnull @.str.8, i32 noundef 391, ptr noundef nonnull @__func__.auth_p_get_host) #13
  call void @slurm_get_ip_str(ptr noundef nonnull %2, ptr noundef %21, i32 noundef 16) #13
  %22 = load i32, ptr getelementptr inbounds nuw (i8, ptr @slurm_conf, i64 268), align 4
  %23 = and i32 %22, 128
  %.not23 = icmp eq i32 %23, 0
  br i1 %.not23, label %24, label %26

24:                                               ; preds = %20
  %25 = call i32 (ptr, ...) @slurm_error(ptr noundef nonnull @.str.12, ptr noundef nonnull @__func__.auth_p_get_host, ptr noundef %21) #13
  br label %26

26:                                               ; preds = %19, %17, %24, %20, %9, %7
  %.014 = phi ptr [ null, %7 ], [ null, %9 ], [ %21, %20 ], [ %21, %24 ], [ %16, %19 ], [ %16, %17 ]
  call void @llvm.lifetime.end.p0(i64 128, ptr nonnull %2) #13
  ret ptr %.014
}